target datalayout = "e-m:e-p270:32:32-p271:32:32-p272:64:64-i64:64-i128:128-f80:128-n8:16:32:64-S128"
target triple = "x86_64-pc-linux-gnu"

%"class.std::__cxx11::basic_string" = type { %"struct.std::__cxx11::basic_string<char>::_Alloc_hider", i64, %union.anon }
%"struct.std::__cxx11::basic_string<char>::_Alloc_hider" = type { ptr }
%union.anon = type { i64, [8 x i8] }
%"class.std::vector.74" = type { %"struct.std::_Vector_base.75" }
%"struct.std::_Vector_base.75" = type { %"struct.std::_Vector_base<const Luau::Type *, std::allocator<const Luau::Type *>>::_Vector_impl" }
%"struct.std::_Vector_base<const Luau::Type *, std::allocator<const Luau::Type *>>::_Vector_impl" = type { %"struct.std::_Vector_base<const Luau::Type *, std::allocator<const Luau::Type *>>::_Vector_impl_data" }
%"struct.std::_Vector_base<const Luau::Type *, std::allocator<const Luau::Type *>>::_Vector_impl_data" = type { ptr, ptr, ptr }
%"class.std::vector.81" = type { %"struct.std::_Vector_base.82" }
%"struct.std::_Vector_base.82" = type { %"struct.std::_Vector_base<const Luau::TypePackVar *, std::allocator<const Luau::TypePackVar *>>::_Vector_impl" }
%"struct.std::_Vector_base<const Luau::TypePackVar *, std::allocator<const Luau::TypePackVar *>>::_Vector_impl" = type { %"struct.std::_Vector_base<const Luau::TypePackVar *, std::allocator<const Luau::TypePackVar *>>::_Vector_impl_data" }
%"struct.std::_Vector_base<const Luau::TypePackVar *, std::allocator<const Luau::TypePackVar *>>::_Vector_impl_data" = type { ptr, ptr, ptr }
%"class.std::optional.145" = type { %"struct.std::_Optional_base.146" }
%"struct.std::_Optional_base.146" = type { %"struct.std::_Optional_payload.148" }
%"struct.std::_Optional_payload.148" = type { %"struct.std::_Optional_payload_base.base.150", [7 x i8] }
%"struct.std::_Optional_payload_base.base.150" = type <{ %"union.std::_Optional_payload_base<Luau::AstName>::_Storage", i8 }>
%"union.std::_Optional_payload_base<Luau::AstName>::_Storage" = type { %"struct.Luau::AstName" }
%"struct.Luau::AstName" = type { ptr }
%"struct.Luau::TypeFunctionInstanceType" = type { %"struct.Luau::NotNull.157", %"class.std::vector.74", %"class.std::vector.81", %"class.std::optional.145", %"struct.Luau::UserDefinedFunctionData" }
%"struct.Luau::NotNull.157" = type { ptr }
%"struct.Luau::UserDefinedFunctionData" = type { %"class.std::weak_ptr", ptr, %"class.Luau::DenseHashMap", %"class.Luau::DenseHashMap.158" }
%"class.std::weak_ptr" = type { %"class.std::__weak_ptr" }
%"class.std::__weak_ptr" = type { ptr, %"class.std::__weak_count" }
%"class.std::__weak_count" = type { ptr }
%"class.Luau::DenseHashMap" = type { %"class.Luau::detail::DenseHashTable" }
%"class.Luau::detail::DenseHashTable" = type <{ ptr, i64, i64, %"class.std::__cxx11::basic_string", [8 x i8] }>
%"class.Luau::DenseHashMap.158" = type { %"class.Luau::detail::DenseHashTable.159" }
%"class.Luau::detail::DenseHashTable.159" = type <{ ptr, i64, i64, %"class.std::__cxx11::basic_string", [8 x i8] }>
%class.anon = type { ptr }
%"class.__gnu_cxx::__normal_iterator.203" = type { ptr }
%"class.__gnu_cxx::__normal_iterator.204" = type { ptr }

; Function Attrs: mustprogress nounwind uwtable
define linkonce_odr dso_local noundef nonnull align 8 dereferenceable(8) ptr @_ZNK9__gnu_cxx17__normal_iteratorIPPKN4Luau11TypePackVarESt6vectorIS4_SaIS4_EEE4baseEv(ptr noundef nonnull align 8 dereferenceable(8) %0) #2 comdat align 2 {
  %2 = alloca ptr, align 8
  store ptr %0, ptr %2, align 8, !tbaa !813
  %3 = load ptr, ptr %2, align 8
  %4 = getelementptr inbounds nuw %"class.__gnu_cxx::__normal_iterator.204", ptr %3, i32 0, i32 0
  ret ptr %4
}

; Function Attrs: mustprogress nounwind uwtable
define linkonce_odr dso_local void @_ZN9__gnu_cxx17__normal_iteratorIPPKN4Luau11TypePackVarESt6vectorIS4_SaIS4_EEEC2ERKS5_(ptr noundef nonnull align 8 dereferenceable(8) %0, ptr noundef nonnull align 8 dereferenceable(8) %1) unnamed_addr #2 comdat align 2 {
  %3 = alloca ptr, align 8
  %4 = alloca ptr, align 8
  store ptr %0, ptr %3, align 8, !tbaa !813
  store ptr %1, ptr %4, align 8, !tbaa !363
  %5 = load ptr, ptr %3, align 8
  %6 = getelementptr inbounds nuw %"class.__gnu_cxx::__normal_iterator.204", ptr %5, i32 0, i32 0
  %7 = load ptr, ptr %4, align 8, !tbaa !363
  %8 = load ptr, ptr %7, align 8, !tbaa !200
  store ptr %8, ptr %6, align 8, !tbaa !815
  ret void
}

; Function Attrs: mustprogress nounwind uwtable
define linkonce_odr dso_local noundef nonnull align 8 dereferenceable(8) ptr @_ZNK9__gnu_cxx17__normal_iteratorIPPKN4Luau4TypeESt6vectorIS4_SaIS4_EEE4baseEv(ptr noundef nonnull align 8 dereferenceable(8) %0) #2 comdat align 2 {
  %2 = alloca ptr, align 8
  store ptr %0, ptr %2, align 8, !tbaa !809
  %3 = load ptr, ptr %2, align 8
  %4 = getelementptr inbounds nuw %"class.__gnu_cxx::__normal_iterator.203", ptr %3, i32 0, i32 0
  ret ptr %4
}

; Function Attrs: mustprogress nounwind uwtable
define linkonce_odr dso_local void @_ZN9__gnu_cxx17__normal_iteratorIPPKN4Luau4TypeESt6vectorIS4_SaIS4_EEEC2ERKS5_(ptr noundef nonnull align 8 dereferenceable(8) %0, ptr noundef nonnull align 8 dereferenceable(8) %1) unnamed_addr #2 comdat align 2 {
  %3 = alloca ptr, align 8
  %4 = alloca ptr, align 8
  store ptr %0, ptr %3, align 8, !tbaa !809
  store ptr %1, ptr %4, align 8, !tbaa !335
  %5 = load ptr, ptr %3, align 8
  %6 = getelementptr inbounds nuw %"class.__gnu_cxx::__normal_iterator.203", ptr %5, i32 0, i32 0
  %7 = load ptr, ptr %4, align 8, !tbaa !335
  %8 = load ptr, ptr %7, align 8, !tbaa !193
  store ptr %8, ptr %6, align 8, !tbaa !811
  ret void
}

; Function Attrs: mustprogress nounwind uwtable
define linkonce_odr dso_local noundef nonnull align 8 dereferenceable(8) ptr @_ZN9__gnu_cxx17__normal_iteratorIPPKN4Luau11TypePackVarESt6vectorIS4_SaIS4_EEEppEv(ptr noundef nonnull align 8 dereferenceable(8) %0) #2 comdat align 2 {
  %2 = alloca ptr, align 8
  store ptr %0, ptr %2, align 8, !tbaa !813
  %3 = load ptr, ptr %2, align 8
  %4 = getelementptr inbounds nuw %"class.__gnu_cxx::__normal_iterator.204", ptr %3, i32 0, i32 0
  %5 = load ptr, ptr %4, align 8, !tbaa !815
  %6 = getelementptr inbounds nuw ptr, ptr %5, i32 1
  store ptr %6, ptr %4, align 8, !tbaa !815
  ret ptr %3
}

; Function Attrs: mustprogress nounwind uwtable
define linkonce_odr dso_local noundef nonnull align 8 dereferenceable(8) ptr @_ZNK9__gnu_cxx17__normal_iteratorIPPKN4Luau11TypePackVarESt6vectorIS4_SaIS4_EEEdeEv(ptr noundef nonnull align 8 dereferenceable(8) %0) #2 comdat align 2 {
  %2 = alloca ptr, align 8
  store ptr %0, ptr %2, align 8, !tbaa !813
  %3 = load ptr, ptr %2, align 8
  %4 = getelementptr inbounds nuw %"class.__gnu_cxx::__normal_iterator.204", ptr %3, i32 0, i32 0
  %5 = load ptr, ptr %4, align 8, !tbaa !815
  ret ptr %5
}

; Function Attrs: inlinehint mustprogress nounwind uwtable
define linkonce_odr dso_local noundef zeroext i1 @_ZN9__gnu_cxxneIPPKN4Luau11TypePackVarESt6vectorIS4_SaIS4_EEEEbRKNS_17__normal_iteratorIT_T0_EESE_(ptr noundef nonnull align 8 dereferenceable(8) %0, ptr noundef nonnull align 8 dereferenceable(8) %1) #6 comdat {
  %3 = alloca ptr, align 8
  %4 = alloca ptr, align 8
  store ptr %0, ptr %3, align 8, !tbaa !813
  store ptr %1, ptr %4, align 8, !tbaa !813
  %5 = load ptr, ptr %3, align 8, !tbaa !813
  %6 = call noundef nonnull align 8 dereferenceable(8) ptr @_ZNK9__gnu_cxx17__normal_iteratorIPPKN4Luau11TypePackVarESt6vectorIS4_SaIS4_EEE4baseEv(ptr noundef nonnull align 8 dereferenceable(8) %5) #18
  %7 = load ptr, ptr %6, align 8, !tbaa !200
  %8 = load ptr, ptr %4, align 8, !tbaa !813
  %9 = call noundef nonnull align 8 dereferenceable(8) ptr @_ZNK9__gnu_cxx17__normal_iteratorIPPKN4Luau11TypePackVarESt6vectorIS4_SaIS4_EEE4baseEv(ptr noundef nonnull align 8 dereferenceable(8) %8) #18
  %10 = load ptr, ptr %9, align 8, !tbaa !200
  %11 = icmp ne ptr %7, %10
  ret i1 %11
}

; Function Attrs: mustprogress nounwind uwtable
define linkonce_odr dso_local ptr @_ZNSt6vectorIPKN4Luau11TypePackVarESaIS3_EE3endEv(ptr noundef nonnull align 8 dereferenceable(24) %0) #2 comdat align 2 {
  %2 = alloca %"class.__gnu_cxx::__normal_iterator.204", align 8
  %3 = alloca ptr, align 8
  store ptr %0, ptr %3, align 8, !tbaa !347
  %4 = load ptr, ptr %3, align 8
  %5 = getelementptr inbounds nuw %"struct.std::_Vector_base.82", ptr %4, i32 0, i32 0
  %6 = getelementptr inbounds nuw %"struct.std::_Vector_base<const Luau::TypePackVar *, std::allocator<const Luau::TypePackVar *>>::_Vector_impl_data", ptr %5, i32 0, i32 1
  call void @_ZN9__gnu_cxx17__normal_iteratorIPPKN4Luau11TypePackVarESt6vectorIS4_SaIS4_EEEC2ERKS5_(ptr noundef nonnull align 8 dereferenceable(8) %2, ptr noundef nonnull align 8 dereferenceable(8) %6) #18
  %7 = getelementptr inbounds nuw %"class.__gnu_cxx::__normal_iterator.204", ptr %2, i32 0, i32 0
  %8 = load ptr, ptr %7, align 8
  ret ptr %8
}

; Function Attrs: mustprogress nounwind uwtable
define linkonce_odr dso_local ptr @_ZNSt6vectorIPKN4Luau11TypePackVarESaIS3_EE5beginEv(ptr noundef nonnull align 8 dereferenceable(24) %0) #2 comdat align 2 {
  %2 = alloca %"class.__gnu_cxx::__normal_iterator.204", align 8
  %3 = alloca ptr, align 8
  store ptr %0, ptr %3, align 8, !tbaa !347
  %4 = load ptr, ptr %3, align 8
  %5 = getelementptr inbounds nuw %"struct.std::_Vector_base.82", ptr %4, i32 0, i32 0
  %6 = getelementptr inbounds nuw %"struct.std::_Vector_base<const Luau::TypePackVar *, std::allocator<const Luau::TypePackVar *>>::_Vector_impl_data", ptr %5, i32 0, i32 0
  call void @_ZN9__gnu_cxx17__normal_iteratorIPPKN4Luau11TypePackVarESt6vectorIS4_SaIS4_EEEC2ERKS5_(ptr noundef nonnull align 8 dereferenceable(8) %2, ptr noundef nonnull align 8 dereferenceable(8) %6) #18
  %7 = getelementptr inbounds nuw %"class.__gnu_cxx::__normal_iterator.204", ptr %2, i32 0, i32 0
  %8 = load ptr, ptr %7, align 8
  ret ptr %8
}

; Function Attrs: mustprogress nounwind uwtable
define linkonce_odr dso_local noundef nonnull align 8 dereferenceable(8) ptr @_ZN9__gnu_cxx17__normal_iteratorIPPKN4Luau4TypeESt6vectorIS4_SaIS4_EEEppEv(ptr noundef nonnull align 8 dereferenceable(8) %0) #2 comdat align 2 {
  %2 = alloca ptr, align 8
  store ptr %0, ptr %2, align 8, !tbaa !809
  %3 = load ptr, ptr %2, align 8
  %4 = getelementptr inbounds nuw %"class.__gnu_cxx::__normal_iterator.203", ptr %3, i32 0, i32 0
  %5 = load ptr, ptr %4, align 8, !tbaa !811
  %6 = getelementptr inbounds nuw ptr, ptr %5, i32 1
  store ptr %6, ptr %4, align 8, !tbaa !811
  ret ptr %3
}

; Function Attrs: mustprogress nounwind uwtable
define linkonce_odr dso_local noundef nonnull align 8 dereferenceable(8) ptr @_ZNK9__gnu_cxx17__normal_iteratorIPPKN4Luau4TypeESt6vectorIS4_SaIS4_EEEdeEv(ptr noundef nonnull align 8 dereferenceable(8) %0) #2 comdat align 2 {
  %2 = alloca ptr, align 8
  store ptr %0, ptr %2, align 8, !tbaa !809
  %3 = load ptr, ptr %2, align 8
  %4 = getelementptr inbounds nuw %"class.__gnu_cxx::__normal_iterator.203", ptr %3, i32 0, i32 0
  %5 = load ptr, ptr %4, align 8, !tbaa !811
  ret ptr %5
}

; Function Attrs: inlinehint mustprogress nounwind uwtable
define linkonce_odr dso_local noundef zeroext i1 @_ZN9__gnu_cxxneIPPKN4Luau4TypeESt6vectorIS4_SaIS4_EEEEbRKNS_17__normal_iteratorIT_T0_EESE_(ptr noundef nonnull align 8 dereferenceable(8) %0, ptr noundef nonnull align 8 dereferenceable(8) %1) #6 comdat {
  %3 = alloca ptr, align 8
  %4 = alloca ptr, align 8
  store ptr %0, ptr %3, align 8, !tbaa !809
  store ptr %1, ptr %4, align 8, !tbaa !809
  %5 = load ptr, ptr %3, align 8, !tbaa !809
  %6 = call noundef nonnull align 8 dereferenceable(8) ptr @_ZNK9__gnu_cxx17__normal_iteratorIPPKN4Luau4TypeESt6vectorIS4_SaIS4_EEE4baseEv(ptr noundef nonnull align 8 dereferenceable(8) %5) #18
  %7 = load ptr, ptr %6, align 8, !tbaa !193
  %8 = load ptr, ptr %4, align 8, !tbaa !809
  %9 = call noundef nonnull align 8 dereferenceable(8) ptr @_ZNK9__gnu_cxx17__normal_iteratorIPPKN4Luau4TypeESt6vectorIS4_SaIS4_EEE4baseEv(ptr noundef nonnull align 8 dereferenceable(8) %8) #18
  %10 = load ptr, ptr %9, align 8, !tbaa !193
  %11 = icmp ne ptr %7, %10
  ret i1 %11
}

; Function Attrs: mustprogress nounwind uwtable
define linkonce_odr dso_local ptr @_ZNSt6vectorIPKN4Luau4TypeESaIS3_EE3endEv(ptr noundef nonnull align 8 dereferenceable(24) %0) #2 comdat align 2 {
  %2 = alloca %"class.__gnu_cxx::__normal_iterator.203", align 8
  %3 = alloca ptr, align 8
  store ptr %0, ptr %3, align 8, !tbaa !319
  %4 = load ptr, ptr %3, align 8
  %5 = getelementptr inbounds nuw %"struct.std::_Vector_base.75", ptr %4, i32 0, i32 0
  %6 = getelementptr inbounds nuw %"struct.std::_Vector_base<const Luau::Type *, std::allocator<const Luau::Type *>>::_Vector_impl_data", ptr %5, i32 0, i32 1
  call void @_ZN9__gnu_cxx17__normal_iteratorIPPKN4Luau4TypeESt6vectorIS4_SaIS4_EEEC2ERKS5_(ptr noundef nonnull align 8 dereferenceable(8) %2, ptr noundef nonnull align 8 dereferenceable(8) %6) #18
  %7 = getelementptr inbounds nuw %"class.__gnu_cxx::__normal_iterator.203", ptr %2, i32 0, i32 0
  %8 = load ptr, ptr %7, align 8
  ret ptr %8
}

; Function Attrs: mustprogress nounwind uwtable
define linkonce_odr dso_local ptr @_ZNSt6vectorIPKN4Luau4TypeESaIS3_EE5beginEv(ptr noundef nonnull align 8 dereferenceable(24) %0) #2 comdat align 2 {
  %2 = alloca %"class.__gnu_cxx::__normal_iterator.203", align 8
  %3 = alloca ptr, align 8
  store ptr %0, ptr %3, align 8, !tbaa !319
  %4 = load ptr, ptr %3, align 8
  %5 = getelementptr inbounds nuw %"struct.std::_Vector_base.75", ptr %4, i32 0, i32 0
  %6 = getelementptr inbounds nuw %"struct.std::_Vector_base<const Luau::Type *, std::allocator<const Luau::Type *>>::_Vector_impl_data", ptr %5, i32 0, i32 0
  call void @_ZN9__gnu_cxx17__normal_iteratorIPPKN4Luau4TypeESt6vectorIS4_SaIS4_EEEC2ERKS5_(ptr noundef nonnull align 8 dereferenceable(8) %2, ptr noundef nonnull align 8 dereferenceable(8) %6) #18
  %7 = getelementptr inbounds nuw %"class.__gnu_cxx::__normal_iterator.203", ptr %2, i32 0, i32 0
  %8 = load ptr, ptr %7, align 8
  ret ptr %8
}

; Function Attrs: mustprogress uwtable
define internal void @_ZN4Luau12_GLOBAL__N_110TypeCloner13cloneChildrenEPNS_24TypeFunctionInstanceTypeE(ptr noundef nonnull align 8 dereferenceable(76) %0, ptr noundef %1) #3 align 2 {
  %3 = alloca ptr, align 8
  %4 = alloca ptr, align 8
  %5 = alloca ptr, align 8
  %6 = alloca %"class.__gnu_cxx::__normal_iterator.203", align 8
  %7 = alloca %"class.__gnu_cxx::__normal_iterator.203", align 8
  %8 = alloca ptr, align 8
  %9 = alloca ptr, align 8
  %10 = alloca %"class.__gnu_cxx::__normal_iterator.204", align 8
  %11 = alloca %"class.__gnu_cxx::__normal_iterator.204", align 8
  %12 = alloca ptr, align 8
  store ptr %0, ptr %3, align 8, !tbaa !54
  store ptr %1, ptr %4, align 8, !tbaa !609
  %13 = load ptr, ptr %3, align 8
  call void @llvm.lifetime.start.p0(i64 8, ptr %5) #18
  %14 = load ptr, ptr %4, align 8, !tbaa !609
  %15 = getelementptr inbounds nuw %"struct.Luau::TypeFunctionInstanceType", ptr %14, i32 0, i32 1
  store ptr %15, ptr %5, align 8, !tbaa !319
  call void @llvm.lifetime.start.p0(i64 8, ptr %6) #18
  %16 = load ptr, ptr %5, align 8, !tbaa !319
  %17 = call ptr @_ZNSt6vectorIPKN4Luau4TypeESaIS3_EE5beginEv(ptr noundef nonnull align 8 dereferenceable(24) %16) #18
  %18 = getelementptr inbounds nuw %"class.__gnu_cxx::__normal_iterator.203", ptr %6, i32 0, i32 0
  store ptr %17, ptr %18, align 8
  call void @llvm.lifetime.start.p0(i64 8, ptr %7) #18
  %19 = load ptr, ptr %5, align 8, !tbaa !319
  %20 = call ptr @_ZNSt6vectorIPKN4Luau4TypeESaIS3_EE3endEv(ptr noundef nonnull align 8 dereferenceable(24) %19) #18
  %21 = getelementptr inbounds nuw %"class.__gnu_cxx::__normal_iterator.203", ptr %7, i32 0, i32 0
  store ptr %20, ptr %21, align 8
  br label %22

22:                                               ; preds = %31, %2
  %23 = call noundef zeroext i1 @_ZN9__gnu_cxxneIPPKN4Luau4TypeESt6vectorIS4_SaIS4_EEEEbRKNS_17__normal_iteratorIT_T0_EESE_(ptr noundef nonnull align 8 dereferenceable(8) %6, ptr noundef nonnull align 8 dereferenceable(8) %7) #18
  br i1 %23, label %25, label %24

24:                                               ; preds = %22
  call void @llvm.lifetime.end.p0(i64 8, ptr %7) #18
  call void @llvm.lifetime.end.p0(i64 8, ptr %6) #18
  call void @llvm.lifetime.end.p0(i64 8, ptr %5) #18
  br label %33

25:                                               ; preds = %22
  call void @llvm.lifetime.start.p0(i64 8, ptr %8) #18
  %26 = call noundef nonnull align 8 dereferenceable(8) ptr @_ZNK9__gnu_cxx17__normal_iteratorIPPKN4Luau4TypeESt6vectorIS4_SaIS4_EEEdeEv(ptr noundef nonnull align 8 dereferenceable(8) %6) #18
  store ptr %26, ptr %8, align 8, !tbaa !193
  %27 = load ptr, ptr %8, align 8, !tbaa !193
  %28 = load ptr, ptr %27, align 8, !tbaa !56
  %29 = call noundef ptr @_ZN4Luau12_GLOBAL__N_110TypeCloner12shallowCloneEPKNS_4TypeE(ptr noundef nonnull align 8 dereferenceable(76) %13, ptr noundef %28)
  %30 = load ptr, ptr %8, align 8, !tbaa !193
  store ptr %29, ptr %30, align 8, !tbaa !56
  call void @llvm.lifetime.end.p0(i64 8, ptr %8) #18
  br label %31

31:                                               ; preds = %25
  %32 = call noundef nonnull align 8 dereferenceable(8) ptr @_ZN9__gnu_cxx17__normal_iteratorIPPKN4Luau4TypeESt6vectorIS4_SaIS4_EEEppEv(ptr noundef nonnull align 8 dereferenceable(8) %6) #18
  br label %22

33:                                               ; preds = %24
  call void @llvm.lifetime.start.p0(i64 8, ptr %9) #18
  %34 = load ptr, ptr %4, align 8, !tbaa !609
  %35 = getelementptr inbounds nuw %"struct.Luau::TypeFunctionInstanceType", ptr %34, i32 0, i32 2
  store ptr %35, ptr %9, align 8, !tbaa !347
  call void @llvm.lifetime.start.p0(i64 8, ptr %10) #18
  %36 = load ptr, ptr %9, align 8, !tbaa !347
  %37 = call ptr @_ZNSt6vectorIPKN4Luau11TypePackVarESaIS3_EE5beginEv(ptr noundef nonnull align 8 dereferenceable(24) %36) #18
  %38 = getelementptr inbounds nuw %"class.__gnu_cxx::__normal_iterator.204", ptr %10, i32 0, i32 0
  store ptr %37, ptr %38, align 8
  call void @llvm.lifetime.start.p0(i64 8, ptr %11) #18
  %39 = load ptr, ptr %9, align 8, !tbaa !347
  %40 = call ptr @_ZNSt6vectorIPKN4Luau11TypePackVarESaIS3_EE3endEv(ptr noundef nonnull align 8 dereferenceable(24) %39) #18
  %41 = getelementptr inbounds nuw %"class.__gnu_cxx::__normal_iterator.204", ptr %11, i32 0, i32 0
  store ptr %40, ptr %41, align 8
  br label %42

42:                                               ; preds = %51, %33
  %43 = call noundef zeroext i1 @_ZN9__gnu_cxxneIPPKN4Luau11TypePackVarESt6vectorIS4_SaIS4_EEEEbRKNS_17__normal_iteratorIT_T0_EESE_(ptr noundef nonnull align 8 dereferenceable(8) %10, ptr noundef nonnull align 8 dereferenceable(8) %11) #18
  br i1 %43, label %45, label %44

44:                                               ; preds = %42
  call void @llvm.lifetime.end.p0(i64 8, ptr %11) #18
  call void @llvm.lifetime.end.p0(i64 8, ptr %10) #18
  call void @llvm.lifetime.end.p0(i64 8, ptr %9) #18
  br label %53

45:                                               ; preds = %42
  call void @llvm.lifetime.start.p0(i64 8, ptr %12) #18
  %46 = call noundef nonnull align 8 dereferenceable(8) ptr @_ZNK9__gnu_cxx17__normal_iteratorIPPKN4Luau11TypePackVarESt6vectorIS4_SaIS4_EEEdeEv(ptr noundef nonnull align 8 dereferenceable(8) %10) #18
  store ptr %46, ptr %12, align 8, !tbaa !200
  %47 = load ptr, ptr %12, align 8, !tbaa !200
  %48 = load ptr, ptr %47, align 8, !tbaa !22
  %49 = call noundef ptr @_ZN4Luau12_GLOBAL__N_110TypeCloner12shallowCloneEPKNS_11TypePackVarE(ptr noundef nonnull align 8 dereferenceable(76) %13, ptr noundef %48)
  %50 = load ptr, ptr %12, align 8, !tbaa !200
  store ptr %49, ptr %50, align 8, !tbaa !22
  call void @llvm.lifetime.end.p0(i64 8, ptr %12) #18
  br label %51

51:                                               ; preds = %45
  %52 = call noundef nonnull align 8 dereferenceable(8) ptr @_ZN9__gnu_cxx17__normal_iteratorIPPKN4Luau11TypePackVarESt6vectorIS4_SaIS4_EEEppEv(ptr noundef nonnull align 8 dereferenceable(8) %10) #18
  br label %42

53:                                               ; preds = %44
  ret void
}

; Function Attrs: inlinehint mustprogress uwtable
define internal void @_ZZN4Luau12_GLOBAL__N_110TypeCloner13cloneChildrenEPKNS_4TypeEENKUlOT_E_clIRNS_24TypeFunctionInstanceTypeEEEDaS6_(ptr noundef nonnull align 8 dereferenceable(8) %0, ptr noundef nonnull align 8 dereferenceable(224) %1) #7 align 2 {
  %3 = alloca ptr, align 8
  %4 = alloca ptr, align 8
  store ptr %0, ptr %3, align 8, !tbaa !228
  store ptr %1, ptr %4, align 8, !tbaa !609
  %5 = load ptr, ptr %3, align 8
  %6 = getelementptr inbounds nuw %class.anon, ptr %5, i32 0, i32 0
  %7 = load ptr, ptr %6, align 8, !tbaa !791
  %8 = load ptr, ptr %4, align 8, !tbaa !609
  call void @_ZN4Luau12_GLOBAL__N_110TypeCloner13cloneChildrenEPNS_24TypeFunctionInstanceTypeE(ptr noundef nonnull align 8 dereferenceable(76) %7, ptr noundef %8)
  ret void
}

; Function Attrs: mustprogress uwtable
define internal void @_ZN4LuauL8fnVisitVIZNS_12_GLOBAL__N_110TypeCloner13cloneChildrenEPKNS_4TypeEEUlOT_E_NS_24TypeFunctionInstanceTypeEEEvRS6_PNSt11conditionalIXsr3stdE10is_const_vIT0_EEKvvE4typeE(ptr noundef nonnull align 8 dereferenceable(8) %0, ptr noundef %1) #3 {
  %3 = alloca ptr, align 8
  %4 = alloca ptr, align 8
  store ptr %0, ptr %3, align 8, !tbaa !228
  store ptr %1, ptr %4, align 8, !tbaa !228
  %5 = load ptr, ptr %3, align 8, !tbaa !228
  %6 = load ptr, ptr %4, align 8, !tbaa !228
  call void @_ZZN4Luau12_GLOBAL__N_110TypeCloner13cloneChildrenEPKNS_4TypeEENKUlOT_E_clIRNS_24TypeFunctionInstanceTypeEEEDaS6_(ptr noundef nonnull align 8 dereferenceable(8) %5, ptr noundef nonnull align 8 dereferenceable(224) %6)
  ret void
}