; Function Attrs: mustprogress uwtable
define internal void @_ZN4LuauL8fnVisitVIZNS_12_GLOBAL__N_110TypeCloner13cloneChildrenEPKNS_4TypeEEUlOT_E_NS_24TypeFunctionInstanceTypeEEEvRS6_PNSt11conditionalIXsr3stdE10is_const_vIT0_EEKvvE4typeE(ptr noundef nonnull readonly align 8 captures(none) dereferenceable(8) %0, ptr noundef readonly captures(none) %1) #2 {
  %.val = load ptr, ptr %0, align 8, !tbaa !335
  %3 = getelementptr inbounds nuw i8, ptr %1, i64 8
  %4 = load ptr, ptr %3, align 8, !tbaa !209
  %5 = getelementptr inbounds nuw i8, ptr %1, i64 16
  %6 = load ptr, ptr %5, align 8, !tbaa !209
  %.not19.i.i = icmp eq ptr %4, %6
  br i1 %.not19.i.i, label %._crit_edge.i.i, label %.lr.ph.i.i

._crit_edge.i.i:                                  ; preds = %.lr.ph.i.i, %2
  %7 = getelementptr inbounds nuw i8, ptr %1, i64 32
  %8 = load ptr, ptr %7, align 8, !tbaa !220
  %9 = getelementptr inbounds nuw i8, ptr %1, i64 40
  %10 = load ptr, ptr %9, align 8, !tbaa !220
  %.not1821.i.i = icmp eq ptr %8, %10
  br i1 %.not1821.i.i, label %_ZZN4Luau12_GLOBAL__N_110TypeCloner13cloneChildrenEPKNS_4TypeEENKUlOT_E_clIRNS_24TypeFunctionInstanceTypeEEEDaS6_.exit, label %.lr.ph24.i.i

.lr.ph.i.i:                                       ; preds = %2, %.lr.ph.i.i
  %.sroa.015.020.i.i = phi ptr [ %13, %.lr.ph.i.i ], [ %4, %2 ]
  %11 = load ptr, ptr %.sroa.015.020.i.i, align 8, !tbaa !85
  %12 = tail call fastcc noundef ptr @_ZN4Luau12_GLOBAL__N_110TypeCloner12shallowCloneEPKNS_4TypeE(ptr noundef nonnull align 8 dereferenceable(76) %.val, ptr noundef %11)
  store ptr %12, ptr %.sroa.015.020.i.i, align 8, !tbaa !85
  %13 = getelementptr inbounds nuw i8, ptr %.sroa.015.020.i.i, i64 8
  %.not.i.i = icmp eq ptr %13, %6
  br i1 %.not.i.i, label %._crit_edge.i.i, label %.lr.ph.i.i

.lr.ph24.i.i:                                     ; preds = %._crit_edge.i.i, %.lr.ph24.i.i
  %.sroa.011.022.i.i = phi ptr [ %16, %.lr.ph24.i.i ], [ %8, %._crit_edge.i.i ]
  %14 = load ptr, ptr %.sroa.011.022.i.i, align 8, !tbaa !57
  %15 = tail call fastcc noundef ptr @_ZN4Luau12_GLOBAL__N_110TypeCloner12shallowCloneEPKNS_11TypePackVarE(ptr noundef nonnull align 8 dereferenceable(76) %.val, ptr noundef %14)
  store ptr %15, ptr %.sroa.011.022.i.i, align 8, !tbaa !57
  %16 = getelementptr inbounds nuw i8, ptr %.sroa.011.022.i.i, i64 8
  %.not18.i.i = icmp eq ptr %16, %10
  br i1 %.not18.i.i, label %_ZZN4Luau12_GLOBAL__N_110TypeCloner13cloneChildrenEPKNS_4TypeEENKUlOT_E_clIRNS_24TypeFunctionInstanceTypeEEEDaS6_.exit, label %.lr.ph24.i.i

_ZZN4Luau12_GLOBAL__N_110TypeCloner13cloneChildrenEPKNS_4TypeEENKUlOT_E_clIRNS_24TypeFunctionInstanceTypeEEEDaS6_.exit: ; preds = %.lr.ph24.i.i, %._crit_edge.i.i
  ret void
}